; Function Attrs: nounwind sspstrong uwtable
define internal void @virtio_scsi_class_init(ptr noundef %klass, ptr readnone captures(none) %data) #0 {
entry:
  %call.i = tail call ptr @object_class_dynamic_cast_assert(ptr noundef %klass, ptr noundef nonnull @.str.7, ptr noundef nonnull @.str.8, i32 noundef 77, ptr noundef nonnull @__func__.DEVICE_CLASS) #13
  %call.i13 = tail call ptr @object_class_dynamic_cast_assert(ptr noundef %klass, ptr noundef nonnull @.str.3, ptr noundef nonnull @.str.4, i32 noundef 85, ptr noundef nonnull @__func__.VIRTIO_DEVICE_CLASS) #13
  %call.i14 = tail call ptr @object_class_dynamic_cast_assert(ptr noundef %klass, ptr noundef nonnull @.str.10, ptr noundef nonnull @.str.11, i32 noundef 21, ptr noundef nonnull @__func__.HOTPLUG_HANDLER_CLASS) #13
  tail call void @device_class_set_props(ptr noundef %call.i, ptr noundef nonnull @virtio_scsi_properties) #13
  %vmsd = getelementptr inbounds nuw i8, ptr %call.i, i64 160
  store ptr @vmstate_virtio_scsi, ptr %vmsd, align 8
  %categories = getelementptr inbounds nuw i8, ptr %call.i, i64 96
  %0 = load i64, ptr %categories, align 8
  %or.i = or i64 %0, 4
  store i64 %or.i, ptr %categories, align 8
  %realize = getelementptr inbounds nuw i8, ptr %call.i13, i64 176
  store ptr @virtio_scsi_device_realize, ptr %realize, align 8
  %unrealize = getelementptr inbounds nuw i8, ptr %call.i13, i64 184
  store ptr @virtio_scsi_device_unrealize, ptr %unrealize, align 8
  %set_config = getelementptr inbounds nuw i8, ptr %call.i13, i64 232
  store ptr @virtio_scsi_set_config, ptr %set_config, align 8
  %get_features = getelementptr inbounds nuw i8, ptr %call.i13, i64 192
  store ptr @virtio_scsi_get_features, ptr %get_features, align 8
  %reset = getelementptr inbounds nuw i8, ptr %call.i13, i64 240
  store ptr @virtio_scsi_reset, ptr %reset, align 8
  %start_ioeventfd = getelementptr inbounds nuw i8, ptr %call.i13, i64 296
  store ptr @virtio_scsi_dataplane_start, ptr %start_ioeventfd, align 8
  %stop_ioeventfd = getelementptr inbounds nuw i8, ptr %call.i13, i64 304
  store ptr @virtio_scsi_dataplane_stop, ptr %stop_ioeventfd, align 8
  %pre_plug = getelementptr inbounds nuw i8, ptr %call.i14, i64 112
  store ptr @virtio_scsi_pre_hotplug, ptr %pre_plug, align 8
  %plug = getelementptr inbounds nuw i8, ptr %call.i14, i64 120
  store ptr @virtio_scsi_hotplug, ptr %plug, align 8
  %unplug = getelementptr inbounds nuw i8, ptr %call.i14, i64 136
  store ptr @virtio_scsi_hotunplug, ptr %unplug, align 8
  ret void
}